target datalayout = "e-m:e-p270:32:32-p271:32:32-p272:64:64-i64:64-i128:128-f80:128-n8:16:32:64-S128"
target triple = "x86_64-pc-linux-gnu"

@_ZN9OutputMgr14hash_func_nameE = dso_local global ptr @.str, align 8
@.str.14 = private unnamed_addr constant [4 x i8] c"();\00", align 1
@.str.55 = private unnamed_addr constant [5 x i8] c"    \00", align 1

; Function Attrs: mustprogress uwtable
define dso_local void @_ZN9OutputMgr11output_tab_ERSoi(ptr noundef nonnull align 8 dereferenceable(8) %0, i32 noundef %1) #5 align 2 {
  %3 = alloca ptr, align 8
  %4 = alloca i32, align 4
  store ptr %0, ptr %3, align 8
  store i32 %1, ptr %4, align 4
  br label %5

5:                                                ; preds = %9, %2
  %6 = load i32, ptr %4, align 4
  %7 = add nsw i32 %6, -1
  store i32 %7, ptr %4, align 4
  %8 = icmp ne i32 %6, 0
  br i1 %8, label %9, label %12

9:                                                ; preds = %5
  %10 = load ptr, ptr %3, align 8
  %11 = call noundef nonnull align 8 dereferenceable(8) ptr @_ZStlsISt11char_traitsIcEERSt13basic_ostreamIcT_ES5_PKc(ptr noundef nonnull align 8 dereferenceable(8) %10, ptr noundef @.str.55)
  br label %5, !llvm.loop !8

12:                                               ; preds = %5
  ret void
}

; Function Attrs: mustprogress uwtable
define dso_local void @_ZN9OutputMgr24OutputHashFuncInvocationERSoi(ptr noundef nonnull align 8 dereferenceable(8) %0, i32 noundef %1) #5 align 2 {
  %3 = alloca ptr, align 8
  %4 = alloca i32, align 4
  store ptr %0, ptr %3, align 8
  store i32 %1, ptr %4, align 4
  %5 = load ptr, ptr %3, align 8
  %6 = load i32, ptr %4, align 4
  call void @_ZN9OutputMgr11output_tab_ERSoi(ptr noundef nonnull align 8 dereferenceable(8) %5, i32 noundef %6)
  %7 = load ptr, ptr %3, align 8
  %8 = load ptr, ptr @_ZN9OutputMgr14hash_func_nameE, align 8
  %9 = call noundef nonnull align 8 dereferenceable(8) ptr @_ZStlsISt11char_traitsIcEERSt13basic_ostreamIcT_ES5_PKc(ptr noundef nonnull align 8 dereferenceable(8) %7, ptr noundef %8)
  %10 = call noundef nonnull align 8 dereferenceable(8) ptr @_ZStlsISt11char_traitsIcEERSt13basic_ostreamIcT_ES5_PKc(ptr noundef nonnull align 8 dereferenceable(8) %9, ptr noundef @.str.14)
  %11 = call noundef nonnull align 8 dereferenceable(8) ptr @_ZNSolsEPFRSoS_E(ptr noundef nonnull align 8 dereferenceable(8) %10, ptr noundef @_ZSt4endlIcSt11char_traitsIcEERSt13basic_ostreamIT_T0_ES6_)
  ret void
}