; Function Attrs: mustprogress uwtable
define dso_local void @_ZN9OutputMgr24OutputHashFuncInvocationERSoi(ptr noundef nonnull align 8 dereferenceable(8) %0, i32 noundef %1) local_unnamed_addr #4 align 2 {
  %.not1.i = icmp eq i32 %1, 0
  br i1 %.not1.i, label %_ZN9OutputMgr11output_tab_ERSoi.exit, label %.lr.ph.i

.lr.ph.i:                                         ; preds = %2, %.lr.ph.i
  %.02.i = phi i32 [ %3, %.lr.ph.i ], [ %1, %2 ]
  %3 = add nsw i32 %.02.i, -1
  %4 = tail call noundef nonnull align 8 dereferenceable(8) ptr @_ZStlsISt11char_traitsIcEERSt13basic_ostreamIcT_ES5_PKc(ptr noundef nonnull align 8 dereferenceable(8) %0, ptr noundef nonnull @.str.55)
  %.not.i = icmp eq i32 %3, 0
  br i1 %.not.i, label %_ZN9OutputMgr11output_tab_ERSoi.exit, label %.lr.ph.i, !llvm.loop !9

_ZN9OutputMgr11output_tab_ERSoi.exit:             ; preds = %.lr.ph.i, %2
  %5 = load ptr, ptr @_ZN9OutputMgr14hash_func_nameE, align 8
  %6 = tail call noundef nonnull align 8 dereferenceable(8) ptr @_ZStlsISt11char_traitsIcEERSt13basic_ostreamIcT_ES5_PKc(ptr noundef nonnull align 8 dereferenceable(8) %0, ptr noundef %5)
  %7 = tail call noundef nonnull align 8 dereferenceable(8) ptr @_ZStlsISt11char_traitsIcEERSt13basic_ostreamIcT_ES5_PKc(ptr noundef nonnull align 8 dereferenceable(8) %6, ptr noundef nonnull @.str.14)
  %8 = tail call noundef nonnull align 8 dereferenceable(8) ptr @_ZNSolsEPFRSoS_E(ptr noundef nonnull align 8 dereferenceable(8) %7, ptr noundef nonnull @_ZSt4endlIcSt11char_traitsIcEERSt13basic_ostreamIT_T0_ES6_)
  ret void
}